target datalayout = "e-m:e-p270:32:32-p271:32:32-p272:64:64-i64:64-i128:128-f80:128-n8:16:32:64-S128"
target triple = "x86_64-pc-linux-gnu"

@.str.16 = private unnamed_addr constant [8 x i8] c"unknown\00", align 1
@.str.35 = private unnamed_addr constant [8 x i8] c"nearest\00", align 1
@.str.36 = private unnamed_addr constant [7 x i8] c"linear\00", align 1
@.str.37 = private unnamed_addr constant [12 x i8] c"tetrahedral\00", align 1
@.str.38 = private unnamed_addr constant [5 x i8] c"best\00", align 1
@.str.39 = private unnamed_addr constant [8 x i8] c"default\00", align 1
@.str.40 = private unnamed_addr constant [6 x i8] c"cubic\00", align 1

; Function Attrs: mustprogress nounwind uwtable
define noundef ptr @_ZN19OpenColorIO_v2_5dev21InterpolationToStringENS_13InterpolationE(i32 noundef %0) #4 {
  %2 = alloca ptr, align 8
  %3 = alloca i32, align 4
  store i32 %0, ptr %3, align 4, !tbaa !59
  %4 = load i32, ptr %3, align 4, !tbaa !59
  %5 = icmp eq i32 %4, 1
  br i1 %5, label %6, label %7

6:                                                ; preds = %1
  store ptr @.str.35, ptr %2, align 8
  br label %33

7:                                                ; preds = %1
  %8 = load i32, ptr %3, align 4, !tbaa !59
  %9 = icmp eq i32 %8, 2
  br i1 %9, label %10, label %11

10:                                               ; preds = %7
  store ptr @.str.36, ptr %2, align 8
  br label %33

11:                                               ; preds = %7
  %12 = load i32, ptr %3, align 4, !tbaa !59
  %13 = icmp eq i32 %12, 3
  br i1 %13, label %14, label %15

14:                                               ; preds = %11
  store ptr @.str.37, ptr %2, align 8
  br label %33

15:                                               ; preds = %11
  %16 = load i32, ptr %3, align 4, !tbaa !59
  %17 = icmp eq i32 %16, 255
  br i1 %17, label %18, label %19

18:                                               ; preds = %15
  store ptr @.str.38, ptr %2, align 8
  br label %33

19:                                               ; preds = %15
  %20 = load i32, ptr %3, align 4, !tbaa !59
  %21 = icmp eq i32 %20, 254
  br i1 %21, label %22, label %23

22:                                               ; preds = %19
  store ptr @.str.39, ptr %2, align 8
  br label %33

23:                                               ; preds = %19
  %24 = load i32, ptr %3, align 4, !tbaa !59
  %25 = icmp eq i32 %24, 4
  br i1 %25, label %26, label %27

26:                                               ; preds = %23
  store ptr @.str.40, ptr %2, align 8
  br label %33

27:                                               ; preds = %23
  br label %28

28:                                               ; preds = %27
  br label %29

29:                                               ; preds = %28
  br label %30

30:                                               ; preds = %29
  br label %31

31:                                               ; preds = %30
  br label %32

32:                                               ; preds = %31
  store ptr @.str.16, ptr %2, align 8
  br label %33

33:                                               ; preds = %32, %26, %22, %18, %14, %10, %6
  %34 = load ptr, ptr %2, align 8
  ret ptr %34
}