; Function Attrs: mustprogress nofree norecurse nosync nounwind willreturn memory(none) uwtable
define noundef nonnull ptr @_ZN19OpenColorIO_v2_5dev21InterpolationToStringENS_13InterpolationE(i32 noundef %0) local_unnamed_addr #9 {
  switch i32 %0, label %7 [
    i32 1, label %8
    i32 2, label %2
    i32 3, label %3
    i32 255, label %4
    i32 254, label %5
    i32 4, label %6
  ]

2:                                                ; preds = %1
  br label %8

3:                                                ; preds = %1
  br label %8

4:                                                ; preds = %1
  br label %8

5:                                                ; preds = %1
  br label %8

6:                                                ; preds = %1
  br label %8

7:                                                ; preds = %1
  br label %8

8:                                                ; preds = %1, %7, %6, %5, %4, %3, %2
  %.0 = phi ptr [ @.str.36, %2 ], [ @.str.37, %3 ], [ @.str.38, %4 ], [ @.str.39, %5 ], [ @.str.40, %6 ], [ @.str.16, %7 ], [ @.str.35, %1 ]
  ret ptr %.0
}